; Function Attrs: nounwind uwtable
define dso_local void @PredicateLockPage(ptr noundef readonly captures(none) %0, i32 noundef %1, ptr noundef readonly captures(none) %2) local_unnamed_addr #0 {
  %4 = alloca %struct.PREDICATELOCKTARGETTAG, align 4
  call void @llvm.lifetime.start.p0(i64 16, ptr nonnull %4) #12
  %5 = load ptr, ptr @MySerializableXact, align 8
  %6 = icmp eq ptr %5, null
  br i1 %6, label %SerializationNeededForRead.exit.thread, label %7

7:                                                ; preds = %3
  %8 = load i32, ptr %2, align 8
  switch i32 %8, label %SerializationNeededForRead.exit.thread [
    i32 0, label %9
    i32 5, label %9
  ]

9:                                                ; preds = %7, %7
  %10 = getelementptr inbounds nuw i8, ptr %5, i64 156
  %11 = load i32, ptr %10, align 4
  %12 = and i32 %11, 128
  %.not.i = icmp eq i32 %12, 0
  br i1 %.not.i, label %14, label %13

13:                                               ; preds = %9
  tail call void @ReleasePredicateLocks(i1 noundef zeroext false, i1 noundef zeroext true)
  br label %SerializationNeededForRead.exit.thread

14:                                               ; preds = %9
  %15 = getelementptr inbounds nuw i8, ptr %0, i64 72
  %16 = load i32, ptr %15, align 8
  %17 = icmp ult i32 %16, 12000
  br i1 %17, label %SerializationNeededForRead.exit.thread, label %SerializationNeededForRead.exit

SerializationNeededForRead.exit:                  ; preds = %14
  %18 = getelementptr inbounds nuw i8, ptr %0, i64 56
  %19 = load ptr, ptr %18, align 8
  %20 = getelementptr inbounds nuw i8, ptr %19, i64 114
  %21 = load i8, ptr %20, align 2
  %.not = icmp eq i8 %21, 116
  br i1 %.not, label %SerializationNeededForRead.exit.thread, label %22

22:                                               ; preds = %SerializationNeededForRead.exit
  %23 = getelementptr inbounds nuw i8, ptr %0, i64 4
  %24 = load i32, ptr %23, align 4
  store i32 %24, ptr %4, align 4
  %25 = getelementptr inbounds nuw i8, ptr %4, i64 4
  store i32 %16, ptr %25, align 4
  %26 = getelementptr inbounds nuw i8, ptr %4, i64 8
  store i32 %1, ptr %26, align 4
  %27 = getelementptr inbounds nuw i8, ptr %4, i64 12
  store i32 0, ptr %27, align 4
  call fastcc void @PredicateLockAcquire(ptr noundef %4)
  br label %SerializationNeededForRead.exit.thread

SerializationNeededForRead.exit.thread:           ; preds = %14, %7, %3, %13, %SerializationNeededForRead.exit, %22
  call void @llvm.lifetime.end.p0(i64 16, ptr nonnull %4) #12
  ret void
}